; Function Attrs: inlinehint mustprogress nounwind uwtable
define internal fastcc void @_ZN3ue212_GLOBAL__N_120Automaton_Haig_MergeD2Ev(ptr noundef nonnull readonly align 8 captures(none) dereferenceable(1132) %0) unnamed_addr #5 align 2 personality ptr @__gxx_personality_v0 {
  %2 = getelementptr inbounds nuw i8, ptr %0, i64 1104
  %3 = load ptr, ptr %2, align 8
  %.not.i.i.i = icmp eq ptr %3, null
  br i1 %.not.i.i.i, label %_ZNSt6vectorItSaItEED2Ev.exit, label %4

4:                                                ; preds = %1
  tail call void @_ZdlPv(ptr noundef nonnull %3) #27
  br label %_ZNSt6vectorItSaItEED2Ev.exit

_ZNSt6vectorItSaItEED2Ev.exit:                    ; preds = %1, %4
  %5 = getelementptr inbounds nuw i8, ptr %0, i64 48
  %6 = load ptr, ptr %5, align 8
  %.not.i.i.i1 = icmp eq ptr %6, null
  br i1 %.not.i.i.i1, label %_ZNSt6vectorItSaItEED2Ev.exit2, label %7

7:                                                ; preds = %_ZNSt6vectorItSaItEED2Ev.exit
  tail call void @_ZdlPv(ptr noundef nonnull %6) #27
  br label %_ZNSt6vectorItSaItEED2Ev.exit2

_ZNSt6vectorItSaItEED2Ev.exit2:                   ; preds = %_ZNSt6vectorItSaItEED2Ev.exit, %7
  %8 = getelementptr inbounds nuw i8, ptr %0, i64 24
  %9 = load ptr, ptr %8, align 8
  %.not.i.i.i3 = icmp eq ptr %9, null
  br i1 %.not.i.i.i3, label %_ZNSt6vectorItSaItEED2Ev.exit4, label %10

10:                                               ; preds = %_ZNSt6vectorItSaItEED2Ev.exit2
  tail call void @_ZdlPv(ptr noundef nonnull %9) #27
  br label %_ZNSt6vectorItSaItEED2Ev.exit4

_ZNSt6vectorItSaItEED2Ev.exit4:                   ; preds = %_ZNSt6vectorItSaItEED2Ev.exit2, %10
  %11 = load ptr, ptr %0, align 8
  %.not.i.i.i5 = icmp eq ptr %11, null
  br i1 %.not.i.i.i5, label %_ZNSt6vectorIPKN3ue211raw_som_dfaESaIS3_EED2Ev.exit, label %12

12:                                               ; preds = %_ZNSt6vectorItSaItEED2Ev.exit4
  tail call void @_ZdlPv(ptr noundef nonnull %11) #27
  br label %_ZNSt6vectorIPKN3ue211raw_som_dfaESaIS3_EED2Ev.exit

_ZNSt6vectorIPKN3ue211raw_som_dfaESaIS3_EED2Ev.exit: ; preds = %_ZNSt6vectorItSaItEED2Ev.exit4, %12
  ret void
}